target datalayout = "e-m:e-p270:32:32-p271:32:32-p272:64:64-i64:64-i128:128-f80:128-n8:16:32:64-S128"
target triple = "x86_64-pc-linux-gnu"

%struct.FT_Vector_ = type { i64, i64 }
%struct.FT_StrokerRec_ = type { i64, i64, %struct.FT_Vector_, i64, i8, i8, i64, %struct.FT_Vector_, i64, i8, i32, i32, i32, i64, i64, [2 x %struct.FT_StrokeBorderRec_], ptr }
%struct.FT_StrokeBorderRec_ = type { i32, i32, ptr, ptr, i8, i32, ptr, i8 }

; Function Attrs: nounwind uwtable
define internal i32 @ft_stroke_border_get_counts(ptr noundef %0, ptr noundef %1, ptr noundef %2) #0 {
  %4 = alloca ptr, align 8
  %5 = alloca ptr, align 8
  %6 = alloca ptr, align 8
  %7 = alloca i32, align 4
  %8 = alloca i32, align 4
  %9 = alloca i32, align 4
  %10 = alloca i32, align 4
  %11 = alloca ptr, align 8
  %12 = alloca ptr, align 8
  %13 = alloca i32, align 4
  store ptr %0, ptr %4, align 8
  store ptr %1, ptr %5, align 8
  store ptr %2, ptr %6, align 8
  store i32 0, ptr %7, align 4
  store i32 0, ptr %8, align 4
  store i32 0, ptr %9, align 4
  %14 = load ptr, ptr %4, align 8
  %15 = getelementptr inbounds %struct.FT_StrokeBorderRec_, ptr %14, i32 0, i32 0
  %16 = load i32, ptr %15, align 8
  store i32 %16, ptr %10, align 4
  %17 = load ptr, ptr %4, align 8
  %18 = getelementptr inbounds %struct.FT_StrokeBorderRec_, ptr %17, i32 0, i32 2
  %19 = load ptr, ptr %18, align 8
  store ptr %19, ptr %11, align 8
  %20 = load ptr, ptr %4, align 8
  %21 = getelementptr inbounds %struct.FT_StrokeBorderRec_, ptr %20, i32 0, i32 3
  %22 = load ptr, ptr %21, align 8
  store ptr %22, ptr %12, align 8
  store i32 0, ptr %13, align 4
  br label %23

23:                                               ; preds = %54, %3
  %24 = load i32, ptr %10, align 4
  %25 = icmp ugt i32 %24, 0
  br i1 %25, label %26, label %63

26:                                               ; preds = %23
  %27 = load ptr, ptr %12, align 8
  %28 = getelementptr inbounds i8, ptr %27, i64 0
  %29 = load i8, ptr %28, align 1
  %30 = zext i8 %29 to i32
  %31 = and i32 %30, 4
  %32 = icmp ne i32 %31, 0
  br i1 %32, label %33, label %38

33:                                               ; preds = %26
  %34 = load i32, ptr %13, align 4
  %35 = icmp ne i32 %34, 0
  br i1 %35, label %36, label %37

36:                                               ; preds = %33
  br label %76

37:                                               ; preds = %33
  store i32 1, ptr %13, align 4
  br label %43

38:                                               ; preds = %26
  %39 = load i32, ptr %13, align 4
  %40 = icmp eq i32 %39, 0
  br i1 %40, label %41, label %42

41:                                               ; preds = %38
  br label %76

42:                                               ; preds = %38
  br label %43

43:                                               ; preds = %42, %37
  %44 = load ptr, ptr %12, align 8
  %45 = getelementptr inbounds i8, ptr %44, i64 0
  %46 = load i8, ptr %45, align 1
  %47 = zext i8 %46 to i32
  %48 = and i32 %47, 8
  %49 = icmp ne i32 %48, 0
  br i1 %49, label %50, label %53

50:                                               ; preds = %43
  store i32 0, ptr %13, align 4
  %51 = load i32, ptr %9, align 4
  %52 = add i32 %51, 1
  store i32 %52, ptr %9, align 4
  br label %53

53:                                               ; preds = %50, %43
  br label %54

54:                                               ; preds = %53
  %55 = load i32, ptr %10, align 4
  %56 = add i32 %55, -1
  store i32 %56, ptr %10, align 4
  %57 = load i32, ptr %8, align 4
  %58 = add i32 %57, 1
  store i32 %58, ptr %8, align 4
  %59 = load ptr, ptr %11, align 8
  %60 = getelementptr inbounds %struct.FT_Vector_, ptr %59, i32 1
  store ptr %60, ptr %11, align 8
  %61 = load ptr, ptr %12, align 8
  %62 = getelementptr inbounds i8, ptr %61, i32 1
  store ptr %62, ptr %12, align 8
  br label %23, !llvm.loop !13

63:                                               ; preds = %23
  %64 = load i32, ptr %13, align 4
  %65 = icmp ne i32 %64, 0
  br i1 %65, label %66, label %67

66:                                               ; preds = %63
  br label %76

67:                                               ; preds = %63
  %68 = load ptr, ptr %4, align 8
  %69 = getelementptr inbounds %struct.FT_StrokeBorderRec_, ptr %68, i32 0, i32 7
  store i8 1, ptr %69, align 8
  br label %70

70:                                               ; preds = %76, %67
  %71 = load i32, ptr %8, align 4
  %72 = load ptr, ptr %5, align 8
  store i32 %71, ptr %72, align 4
  %73 = load i32, ptr %9, align 4
  %74 = load ptr, ptr %6, align 8
  store i32 %73, ptr %74, align 4
  %75 = load i32, ptr %7, align 4
  ret i32 %75

76:                                               ; preds = %66, %41, %36
  store i32 0, ptr %8, align 4
  store i32 0, ptr %9, align 4
  br label %70
}

; Function Attrs: nounwind uwtable
define i32 @FT_Stroker_GetBorderCounts(ptr noundef %0, i32 noundef %1, ptr noundef %2, ptr noundef %3) #0 {
  %5 = alloca ptr, align 8
  %6 = alloca i32, align 4
  %7 = alloca ptr, align 8
  %8 = alloca ptr, align 8
  %9 = alloca i32, align 4
  %10 = alloca i32, align 4
  %11 = alloca i32, align 4
  store ptr %0, ptr %5, align 8
  store i32 %1, ptr %6, align 4
  store ptr %2, ptr %7, align 8
  store ptr %3, ptr %8, align 8
  store i32 0, ptr %9, align 4
  store i32 0, ptr %10, align 4
  %12 = load ptr, ptr %5, align 8
  %13 = icmp ne ptr %12, null
  br i1 %13, label %14, label %17

14:                                               ; preds = %4
  %15 = load i32, ptr %6, align 4
  %16 = icmp ugt i32 %15, 1
  br i1 %16, label %17, label %18

17:                                               ; preds = %14, %4
  store i32 6, ptr %11, align 4
  br label %26

18:                                               ; preds = %14
  %19 = load ptr, ptr %5, align 8
  %20 = getelementptr inbounds %struct.FT_StrokerRec_, ptr %19, i32 0, i32 15
  %21 = getelementptr inbounds [2 x %struct.FT_StrokeBorderRec_], ptr %20, i64 0, i64 0
  %22 = load i32, ptr %6, align 4
  %23 = zext i32 %22 to i64
  %24 = getelementptr inbounds %struct.FT_StrokeBorderRec_, ptr %21, i64 %23
  %25 = call i32 @ft_stroke_border_get_counts(ptr noundef %24, ptr noundef %9, ptr noundef %10)
  store i32 %25, ptr %11, align 4
  br label %26

26:                                               ; preds = %18, %17
  %27 = load ptr, ptr %7, align 8
  %28 = icmp ne ptr %27, null
  br i1 %28, label %29, label %32

29:                                               ; preds = %26
  %30 = load i32, ptr %9, align 4
  %31 = load ptr, ptr %7, align 8
  store i32 %30, ptr %31, align 4
  br label %32

32:                                               ; preds = %29, %26
  %33 = load ptr, ptr %8, align 8
  %34 = icmp ne ptr %33, null
  br i1 %34, label %35, label %38

35:                                               ; preds = %32
  %36 = load i32, ptr %10, align 4
  %37 = load ptr, ptr %8, align 8
  store i32 %36, ptr %37, align 4
  br label %38

38:                                               ; preds = %35, %32
  %39 = load i32, ptr %11, align 4
  ret i32 %39
}