; Function Attrs: nofree norecurse nosync nounwind memory(read, argmem: readwrite, inaccessiblemem: none) uwtable
define range(i32 0, 7) i32 @FT_Stroker_GetBorderCounts(ptr noundef %0, i32 noundef %1, ptr noundef writeonly %2, ptr noundef writeonly %3) local_unnamed_addr #5 {
  %5 = icmp eq ptr %0, null
  %6 = icmp ugt i32 %1, 1
  %or.cond = or i1 %5, %6
  br i1 %or.cond, label %ft_stroke_border_get_counts.exit, label %7

7:                                                ; preds = %4
  %8 = getelementptr inbounds nuw i8, ptr %0, i64 112
  %9 = zext nneg i32 %1 to i64
  %10 = getelementptr inbounds nuw %struct.FT_StrokeBorderRec_, ptr %8, i64 %9
  %11 = load i32, ptr %10, align 8
  %.not35.i = icmp eq i32 %11, 0
  br i1 %.not35.i, label %._crit_edge.thread.i, label %.lr.ph.preheader.i

.lr.ph.preheader.i:                               ; preds = %7
  %12 = getelementptr inbounds nuw i8, ptr %10, i64 16
  %13 = load ptr, ptr %12, align 8
  br label %.lr.ph.i

.lr.ph.i:                                         ; preds = %17, %.lr.ph.preheader.i
  %.040.i = phi i1 [ %.not30.not.i, %17 ], [ true, %.lr.ph.preheader.i ]
  %.01939.i = phi ptr [ %21, %17 ], [ %13, %.lr.ph.preheader.i ]
  %.02138.i = phi i32 [ %20, %17 ], [ %11, %.lr.ph.preheader.i ]
  %.02237.i = phi i32 [ %spec.select.i, %17 ], [ 0, %.lr.ph.preheader.i ]
  %14 = load i8, ptr %.01939.i, align 1
  %15 = and i8 %14, 4
  %.not28.i = icmp eq i8 %15, 0
  %16 = xor i1 %.040.i, %.not28.i
  br i1 %16, label %17, label %ft_stroke_border_get_counts.exit

17:                                               ; preds = %.lr.ph.i
  %18 = and i8 %14, 8
  %.not30.not.i = icmp ne i8 %18, 0
  %.lobit.i = lshr exact i8 %18, 3
  %19 = zext nneg i8 %.lobit.i to i32
  %spec.select.i = add i32 %.02237.i, %19
  %20 = add i32 %.02138.i, -1
  %21 = getelementptr inbounds nuw i8, ptr %.01939.i, i64 1
  %.not.i = icmp eq i32 %20, 0
  br i1 %.not.i, label %._crit_edge.i, label %.lr.ph.i, !llvm.loop !14

._crit_edge.i:                                    ; preds = %17
  br i1 %.not30.not.i, label %._crit_edge.thread.i, label %ft_stroke_border_get_counts.exit

._crit_edge.thread.i:                             ; preds = %._crit_edge.i, %7
  %.022.lcssa47.i = phi i32 [ %spec.select.i, %._crit_edge.i ], [ 0, %7 ]
  %22 = getelementptr inbounds nuw i8, ptr %10, i64 40
  store i8 1, ptr %22, align 8
  br label %ft_stroke_border_get_counts.exit

ft_stroke_border_get_counts.exit:                 ; preds = %.lr.ph.i, %._crit_edge.thread.i, %._crit_edge.i, %4
  %.016 = phi i32 [ 0, %4 ], [ %11, %._crit_edge.thread.i ], [ 0, %._crit_edge.i ], [ 0, %.lr.ph.i ]
  %.015 = phi i32 [ 0, %4 ], [ %.022.lcssa47.i, %._crit_edge.thread.i ], [ 0, %._crit_edge.i ], [ 0, %.lr.ph.i ]
  %.0 = phi i32 [ 6, %4 ], [ 0, %._crit_edge.thread.i ], [ 0, %._crit_edge.i ], [ 0, %.lr.ph.i ]
  %.not = icmp eq ptr %2, null
  br i1 %.not, label %24, label %23

23:                                               ; preds = %ft_stroke_border_get_counts.exit
  store i32 %.016, ptr %2, align 4
  br label %24

24:                                               ; preds = %23, %ft_stroke_border_get_counts.exit
  %.not13 = icmp eq ptr %3, null
  br i1 %.not13, label %26, label %25

25:                                               ; preds = %24
  store i32 %.015, ptr %3, align 4
  br label %26

26:                                               ; preds = %25, %24
  ret i32 %.0
}